target datalayout = "e-m:e-p270:32:32-p271:32:32-p272:64:64-i64:64-f80:128-n8:16:32:64-S128"
target triple = "x86_64-pc-linux-gnu"

%struct.student = type { [20 x i8], i32, i32, i8, i8, i32 }

@.str = private unnamed_addr constant [3 x i8] c"%d\00", align 1
@.str.1 = private unnamed_addr constant [18 x i8] c"%s %d %d %c %c %d\00", align 1
@.str.2 = private unnamed_addr constant [10 x i8] c"%s\0A%d\0A%d\0A\00", align 1

; Function Attrs: noinline nounwind uwtable
define dso_local void @main() #0 {
  %1 = alloca [200 x %struct.student], align 16
  %2 = alloca i32, align 4
  %3 = alloca i32, align 4
  %4 = alloca [200 x i32], align 16
  %5 = alloca [200 x i32], align 16
  %6 = alloca i32, align 4
  %7 = alloca i32, align 4
  %8 = alloca i32, align 4
  %9 = alloca i32, align 4
  %10 = alloca i32, align 4
  %11 = alloca i32, align 4
  store i32 0, i32* %10, align 4
  %12 = call i32 (i8*, ...) @__isoc99_scanf(i8* getelementptr inbounds ([3 x i8], [3 x i8]* @.str, i64 0, i64 0), i32* %2)
  store i32 0, i32* %3, align 4
  br label %13

13:                                               ; preds = %162, %0
  %14 = load i32, i32* %3, align 4
  %15 = load i32, i32* %2, align 4
  %16 = icmp slt i32 %14, %15
  br i1 %16, label %17, label %165

17:                                               ; preds = %13
  %18 = load i32, i32* %3, align 4
  %19 = sext i32 %18 to i64
  %20 = getelementptr inbounds [200 x i32], [200 x i32]* %4, i64 0, i64 %19
  store i32 0, i32* %20, align 4
  %21 = load i32, i32* %3, align 4
  %22 = sext i32 %21 to i64
  %23 = getelementptr inbounds [200 x %struct.student], [200 x %struct.student]* %1, i64 0, i64 %22
  %24 = getelementptr inbounds %struct.student, %struct.student* %23, i32 0, i32 0
  %25 = load i32, i32* %3, align 4
  %26 = sext i32 %25 to i64
  %27 = getelementptr inbounds [200 x %struct.student], [200 x %struct.student]* %1, i64 0, i64 %26
  %28 = getelementptr inbounds %struct.student, %struct.student* %27, i32 0, i32 1
  %29 = load i32, i32* %3, align 4
  %30 = sext i32 %29 to i64
  %31 = getelementptr inbounds [200 x %struct.student], [200 x %struct.student]* %1, i64 0, i64 %30
  %32 = getelementptr inbounds %struct.student, %struct.student* %31, i32 0, i32 2
  %33 = load i32, i32* %3, align 4
  %34 = sext i32 %33 to i64
  %35 = getelementptr inbounds [200 x %struct.student], [200 x %struct.student]* %1, i64 0, i64 %34
  %36 = getelementptr inbounds %struct.student, %struct.student* %35, i32 0, i32 3
  %37 = load i32, i32* %3, align 4
  %38 = sext i32 %37 to i64
  %39 = getelementptr inbounds [200 x %struct.student], [200 x %struct.student]* %1, i64 0, i64 %38
  %40 = getelementptr inbounds %struct.student, %struct.student* %39, i32 0, i32 4
  %41 = load i32, i32* %3, align 4
  %42 = sext i32 %41 to i64
  %43 = getelementptr inbounds [200 x %struct.student], [200 x %struct.student]* %1, i64 0, i64 %42
  %44 = getelementptr inbounds %struct.student, %struct.student* %43, i32 0, i32 5
  %45 = call i32 (i8*, ...) @__isoc99_scanf(i8* getelementptr inbounds ([18 x i8], [18 x i8]* @.str.1, i64 0, i64 0), [20 x i8]* %24, i32* %28, i32* %32, i8* %36, i8* %40, i32* %44)
  %46 = load i32, i32* %3, align 4
  %47 = sext i32 %46 to i64
  %48 = getelementptr inbounds [200 x %struct.student], [200 x %struct.student]* %1, i64 0, i64 %47
  %49 = getelementptr inbounds %struct.student, %struct.student* %48, i32 0, i32 1
  %50 = load i32, i32* %49, align 4
  %51 = icmp sgt i32 %50, 80
  br i1 %51, label %52, label %68

52:                                               ; preds = %17
  %53 = load i32, i32* %3, align 4
  %54 = sext i32 %53 to i64
  %55 = getelementptr inbounds [200 x %struct.student], [200 x %struct.student]* %1, i64 0, i64 %54
  %56 = getelementptr inbounds %struct.student, %struct.student* %55, i32 0, i32 5
  %57 = load i32, i32* %56, align 4
  %58 = icmp sge i32 %57, 1
  br i1 %58, label %59, label %68

59:                                               ; preds = %52
  %60 = load i32, i32* %3, align 4
  %61 = sext i32 %60 to i64
  %62 = getelementptr inbounds [200 x i32], [200 x i32]* %4, i64 0, i64 %61
  %63 = load i32, i32* %62, align 4
  %64 = add nsw i32 %63, 8000
  %65 = load i32, i32* %3, align 4
  %66 = sext i32 %65 to i64
  %67 = getelementptr inbounds [200 x i32], [200 x i32]* %4, i64 0, i64 %66
  store i32 %64, i32* %67, align 4
  br label %68

68:                                               ; preds = %59, %52, %17
  %69 = load i32, i32* %3, align 4
  %70 = sext i32 %69 to i64
  %71 = getelementptr inbounds [200 x %struct.student], [200 x %struct.student]* %1, i64 0, i64 %70
  %72 = getelementptr inbounds %struct.student, %struct.student* %71, i32 0, i32 1
  %73 = load i32, i32* %72, align 4
  %74 = icmp sgt i32 %73, 85
  br i1 %74, label %75, label %91

75:                                               ; preds = %68
  %76 = load i32, i32* %3, align 4
  %77 = sext i32 %76 to i64
  %78 = getelementptr inbounds [200 x %struct.student], [200 x %struct.student]* %1, i64 0, i64 %77
  %79 = getelementptr inbounds %struct.student, %struct.student* %78, i32 0, i32 2
  %80 = load i32, i32* %79, align 4
  %81 = icmp sgt i32 %80, 80
  br i1 %81, label %82, label %91

82:                                               ; preds = %75
  %83 = load i32, i32* %3, align 4
  %84 = sext i32 %83 to i64
  %85 = getelementptr inbounds [200 x i32], [200 x i32]* %4, i64 0, i64 %84
  %86 = load i32, i32* %85, align 4
  %87 = add nsw i32 %86, 4000
  %88 = load i32, i32* %3, align 4
  %89 = sext i32 %88 to i64
  %90 = getelementptr inbounds [200 x i32], [200 x i32]* %4, i64 0, i64 %89
  store i32 %87, i32* %90, align 4
  br label %91

91:                                               ; preds = %82, %75, %68
  %92 = load i32, i32* %3, align 4
  %93 = sext i32 %92 to i64
  %94 = getelementptr inbounds [200 x %struct.student], [200 x %struct.student]* %1, i64 0, i64 %93
  %95 = getelementptr inbounds %struct.student, %struct.student* %94, i32 0, i32 1
  %96 = load i32, i32* %95, align 4
  %97 = icmp sgt i32 %96, 90
  br i1 %97, label %98, label %107

98:                                               ; preds = %91
  %99 = load i32, i32* %3, align 4
  %100 = sext i32 %99 to i64
  %101 = getelementptr inbounds [200 x i32], [200 x i32]* %4, i64 0, i64 %100
  %102 = load i32, i32* %101, align 4
  %103 = add nsw i32 %102, 2000
  %104 = load i32, i32* %3, align 4
  %105 = sext i32 %104 to i64
  %106 = getelementptr inbounds [200 x i32], [200 x i32]* %4, i64 0, i64 %105
  store i32 %103, i32* %106, align 4
  br label %107

107:                                              ; preds = %98, %91
  %108 = load i32, i32* %3, align 4
  %109 = sext i32 %108 to i64
  %110 = getelementptr inbounds [200 x %struct.student], [200 x %struct.student]* %1, i64 0, i64 %109
  %111 = getelementptr inbounds %struct.student, %struct.student* %110, i32 0, i32 1
  %112 = load i32, i32* %111, align 4
  %113 = icmp sgt i32 %112, 85
  br i1 %113, label %114, label %131

114:                                              ; preds = %107
  %115 = load i32, i32* %3, align 4
  %116 = sext i32 %115 to i64
  %117 = getelementptr inbounds [200 x %struct.student], [200 x %struct.student]* %1, i64 0, i64 %116
  %118 = getelementptr inbounds %struct.student, %struct.student* %117, i32 0, i32 4
  %119 = load i8, i8* %118, align 1
  %120 = sext i8 %119 to i32
  %121 = icmp eq i32 %120, 89
  br i1 %121, label %122, label %131

122:                                              ; preds = %114
  %123 = load i32, i32* %3, align 4
  %124 = sext i32 %123 to i64
  %125 = getelementptr inbounds [200 x i32], [200 x i32]* %4, i64 0, i64 %124
  %126 = load i32, i32* %125, align 4
  %127 = add nsw i32 %126, 1000
  %128 = load i32, i32* %3, align 4
  %129 = sext i32 %128 to i64
  %130 = getelementptr inbounds [200 x i32], [200 x i32]* %4, i64 0, i64 %129
  store i32 %127, i32* %130, align 4
  br label %131

131:                                              ; preds = %122, %114, %107
  %132 = load i32, i32* %3, align 4
  %133 = sext i32 %132 to i64
  %134 = getelementptr inbounds [200 x %struct.student], [200 x %struct.student]* %1, i64 0, i64 %133
  %135 = getelementptr inbounds %struct.student, %struct.student* %134, i32 0, i32 2
  %136 = load i32, i32* %135, align 4
  %137 = icmp sgt i32 %136, 80
  br i1 %137, label %138, label %155

138:                                              ; preds = %131
  %139 = load i32, i32* %3, align 4
  %140 = sext i32 %139 to i64
  %141 = getelementptr inbounds [200 x %struct.student], [200 x %struct.student]* %1, i64 0, i64 %140
  %142 = getelementptr inbounds %struct.student, %struct.student* %141, i32 0, i32 3
  %143 = load i8, i8* %142, align 4
  %144 = sext i8 %143 to i32
  %145 = icmp eq i32 %144, 89
  br i1 %145, label %146, label %155

146:                                              ; preds = %138
  %147 = load i32, i32* %3, align 4
  %148 = sext i32 %147 to i64
  %149 = getelementptr inbounds [200 x i32], [200 x i32]* %4, i64 0, i64 %148
  %150 = load i32, i32* %149, align 4
  %151 = add nsw i32 %150, 850
  %152 = load i32, i32* %3, align 4
  %153 = sext i32 %152 to i64
  %154 = getelementptr inbounds [200 x i32], [200 x i32]* %4, i64 0, i64 %153
  store i32 %151, i32* %154, align 4
  br label %155

155:                                              ; preds = %146, %138, %131
  %156 = load i32, i32* %10, align 4
  %157 = load i32, i32* %3, align 4
  %158 = sext i32 %157 to i64
  %159 = getelementptr inbounds [200 x i32], [200 x i32]* %4, i64 0, i64 %158
  %160 = load i32, i32* %159, align 4
  %161 = add nsw i32 %156, %160
  store i32 %161, i32* %10, align 4
  br label %162

162:                                              ; preds = %155
  %163 = load i32, i32* %3, align 4
  %164 = add nsw i32 %163, 1
  store i32 %164, i32* %3, align 4
  br label %13

165:                                              ; preds = %13
  store i32 0, i32* %6, align 4
  br label %166

166:                                              ; preds = %178, %165
  %167 = load i32, i32* %6, align 4
  %168 = load i32, i32* %2, align 4
  %169 = icmp slt i32 %167, %168
  br i1 %169, label %170, label %181

170:                                              ; preds = %166
  %171 = load i32, i32* %6, align 4
  %172 = sext i32 %171 to i64
  %173 = getelementptr inbounds [200 x i32], [200 x i32]* %4, i64 0, i64 %172
  %174 = load i32, i32* %173, align 4
  %175 = load i32, i32* %6, align 4
  %176 = sext i32 %175 to i64
  %177 = getelementptr inbounds [200 x i32], [200 x i32]* %5, i64 0, i64 %176
  store i32 %174, i32* %177, align 4
  br label %178

178:                                              ; preds = %170
  %179 = load i32, i32* %6, align 4
  %180 = add nsw i32 %179, 1
  store i32 %180, i32* %6, align 4
  br label %166

181:                                              ; preds = %166
  %182 = getelementptr inbounds [200 x i32], [200 x i32]* %4, i64 0, i64 0
  %183 = load i32, i32* %182, align 16
  store i32 %183, i32* %11, align 4
  store i32 0, i32* %7, align 4
  br label %184

184:                                              ; preds = %201, %181
  %185 = load i32, i32* %7, align 4
  %186 = load i32, i32* %2, align 4
  %187 = icmp slt i32 %185, %186
  br i1 %187, label %188, label %204

188:                                              ; preds = %184
  %189 = load i32, i32* %7, align 4
  %190 = sext i32 %189 to i64
  %191 = getelementptr inbounds [200 x i32], [200 x i32]* %4, i64 0, i64 %190
  %192 = load i32, i32* %191, align 4
  %193 = load i32, i32* %11, align 4
  %194 = icmp sgt i32 %192, %193
  br i1 %194, label %195, label %200

195:                                              ; preds = %188
  %196 = load i32, i32* %7, align 4
  %197 = sext i32 %196 to i64
  %198 = getelementptr inbounds [200 x i32], [200 x i32]* %4, i64 0, i64 %197
  %199 = load i32, i32* %198, align 4
  store i32 %199, i32* %11, align 4
  br label %200

200:                                              ; preds = %195, %188
  br label %201

201:                                              ; preds = %200
  %202 = load i32, i32* %7, align 4
  %203 = add nsw i32 %202, 1
  store i32 %203, i32* %7, align 4
  br label %184

204:                                              ; preds = %184
  store i32 0, i32* %9, align 4
  br label %205

205:                                              ; preds = %218, %204
  %206 = load i32, i32* %9, align 4
  %207 = load i32, i32* %2, align 4
  %208 = icmp slt i32 %206, %207
  br i1 %208, label %209, label %221

209:                                              ; preds = %205
  %210 = load i32, i32* %9, align 4
  %211 = sext i32 %210 to i64
  %212 = getelementptr inbounds [200 x i32], [200 x i32]* %5, i64 0, i64 %211
  %213 = load i32, i32* %212, align 4
  %214 = load i32, i32* %11, align 4
  %215 = icmp eq i32 %213, %214
  br i1 %215, label %216, label %217

216:                                              ; preds = %209
  br label %221

217:                                              ; preds = %209
  br label %218

218:                                              ; preds = %217
  %219 = load i32, i32* %9, align 4
  %220 = add nsw i32 %219, 1
  store i32 %220, i32* %9, align 4
  br label %205

221:                                              ; preds = %216, %205
  %222 = load i32, i32* %9, align 4
  %223 = sext i32 %222 to i64
  %224 = getelementptr inbounds [200 x %struct.student], [200 x %struct.student]* %1, i64 0, i64 %223
  %225 = getelementptr inbounds %struct.student, %struct.student* %224, i32 0, i32 0
  %226 = getelementptr inbounds [20 x i8], [20 x i8]* %225, i64 0, i64 0
  %227 = load i32, i32* %11, align 4
  %228 = load i32, i32* %10, align 4
  %229 = call i32 (i8*, ...) @printf(i8* getelementptr inbounds ([10 x i8], [10 x i8]* @.str.2, i64 0, i64 0), i8* %226, i32 %227, i32 %228)
  ret void
}